ARM GAS  C:\Users\danie\AppData\Local\Temp\ccY4y8KA.s 			page 1


   1              		.cpu cortex-m4
   2              		.arch armv7e-m
   3              		.fpu fpv4-sp-d16
   4              		.eabi_attribute 27, 1
   5              		.eabi_attribute 28, 1
   6              		.eabi_attribute 20, 1
   7              		.eabi_attribute 21, 1
   8              		.eabi_attribute 23, 3
   9              		.eabi_attribute 24, 1
  10              		.eabi_attribute 25, 1
  11              		.eabi_attribute 26, 1
  12              		.eabi_attribute 30, 1
  13              		.eabi_attribute 34, 1
  14              		.eabi_attribute 18, 4
  15              		.file	"main.c"
  16              		.text
  17              	.Ltext0:
  18              		.cfi_sections	.debug_frame
  19              		.section	.text.MX_NVIC_Init,"ax",%progbits
  20              		.align	1
  21              		.syntax unified
  22              		.thumb
  23              		.thumb_func
  25              	MX_NVIC_Init:
  26              	.LFB132:
  27              		.file 1 "Core/Src/main.c"
   1:Core/Src/main.c **** /* USER CODE BEGIN Header */
   2:Core/Src/main.c **** /**
   3:Core/Src/main.c ****  ******************************************************************************
   4:Core/Src/main.c ****  * @file           : main.c
   5:Core/Src/main.c ****  * @brief          : Main program body
   6:Core/Src/main.c ****  ******************************************************************************
   7:Core/Src/main.c ****  * @attention
   8:Core/Src/main.c ****  *
   9:Core/Src/main.c ****  * Copyright (c) 2022 STMicroelectronics.
  10:Core/Src/main.c ****  * All rights reserved.
  11:Core/Src/main.c ****  *
  12:Core/Src/main.c ****  * This software is licensed under terms that can be found in the LICENSE file
  13:Core/Src/main.c ****  * in the root directory of this software component.
  14:Core/Src/main.c ****  * If no LICENSE file comes with this software, it is provided AS-IS.
  15:Core/Src/main.c ****  *
  16:Core/Src/main.c ****  ******************************************************************************
  17:Core/Src/main.c ****  */
  18:Core/Src/main.c **** /* USER CODE END Header */
  19:Core/Src/main.c **** /* Includes ------------------------------------------------------------------*/
  20:Core/Src/main.c **** #include "main.h"
  21:Core/Src/main.c **** #include "tim.h"
  22:Core/Src/main.c **** #include "usart.h"
  23:Core/Src/main.c **** #include "gpio.h"
  24:Core/Src/main.c **** 
  25:Core/Src/main.c **** /* Private includes ----------------------------------------------------------*/
  26:Core/Src/main.c **** /* USER CODE BEGIN Includes */
  27:Core/Src/main.c **** 
  28:Core/Src/main.c **** /* USER CODE END Includes */
  29:Core/Src/main.c **** 
  30:Core/Src/main.c **** /* Private typedef -----------------------------------------------------------*/
  31:Core/Src/main.c **** /* USER CODE BEGIN PTD */
ARM GAS  C:\Users\danie\AppData\Local\Temp\ccY4y8KA.s 			page 2


  32:Core/Src/main.c **** 
  33:Core/Src/main.c **** /* USER CODE END PTD */
  34:Core/Src/main.c **** 
  35:Core/Src/main.c **** /* Private define ------------------------------------------------------------*/
  36:Core/Src/main.c **** /* USER CODE BEGIN PD */
  37:Core/Src/main.c **** /* USER CODE END PD */
  38:Core/Src/main.c **** 
  39:Core/Src/main.c **** /* Private macro -------------------------------------------------------------*/
  40:Core/Src/main.c **** /* USER CODE BEGIN PM */
  41:Core/Src/main.c **** 
  42:Core/Src/main.c **** /* USER CODE END PM */
  43:Core/Src/main.c **** 
  44:Core/Src/main.c **** /* Private variables ---------------------------------------------------------*/
  45:Core/Src/main.c **** 
  46:Core/Src/main.c **** /* USER CODE BEGIN PV */
  47:Core/Src/main.c **** //----------  Input Capture Example ----------
  48:Core/Src/main.c **** // volatile uint16_t TimerCounterDown;
  49:Core/Src/main.c **** // volatile uint16_t TimerCounterUp;
  50:Core/Src/main.c **** /* USER CODE END PV */
  51:Core/Src/main.c **** 
  52:Core/Src/main.c **** /* Private function prototypes -----------------------------------------------*/
  53:Core/Src/main.c **** void SystemClock_Config(void);
  54:Core/Src/main.c **** static void MX_NVIC_Init(void);
  55:Core/Src/main.c **** /* USER CODE BEGIN PFP */
  56:Core/Src/main.c **** 
  57:Core/Src/main.c **** /* USER CODE END PFP */
  58:Core/Src/main.c **** 
  59:Core/Src/main.c **** /* Private user code ---------------------------------------------------------*/
  60:Core/Src/main.c **** /* USER CODE BEGIN 0 */
  61:Core/Src/main.c **** 
  62:Core/Src/main.c **** /* USER CODE END 0 */
  63:Core/Src/main.c **** 
  64:Core/Src/main.c **** /**
  65:Core/Src/main.c ****  * @brief  The application entry point.
  66:Core/Src/main.c ****  * @retval int
  67:Core/Src/main.c ****  */
  68:Core/Src/main.c **** int main(void)
  69:Core/Src/main.c **** {
  70:Core/Src/main.c ****   /* USER CODE BEGIN 1 */
  71:Core/Src/main.c **** 
  72:Core/Src/main.c ****   /* USER CODE END 1 */
  73:Core/Src/main.c **** 
  74:Core/Src/main.c ****   /* MCU Configuration--------------------------------------------------------*/
  75:Core/Src/main.c **** 
  76:Core/Src/main.c ****   /* Reset of all peripherals, Initializes the Flash interface and the Systick. */
  77:Core/Src/main.c ****   HAL_Init();
  78:Core/Src/main.c **** 
  79:Core/Src/main.c ****   /* USER CODE BEGIN Init */
  80:Core/Src/main.c **** 
  81:Core/Src/main.c ****   /* USER CODE END Init */
  82:Core/Src/main.c **** 
  83:Core/Src/main.c ****   /* Configure the system clock */
  84:Core/Src/main.c ****   SystemClock_Config();
  85:Core/Src/main.c **** 
  86:Core/Src/main.c ****   /* USER CODE BEGIN SysInit */
  87:Core/Src/main.c **** 
  88:Core/Src/main.c ****   /* USER CODE END SysInit */
ARM GAS  C:\Users\danie\AppData\Local\Temp\ccY4y8KA.s 			page 3


  89:Core/Src/main.c **** 
  90:Core/Src/main.c ****   /* Initialize all configured peripherals */
  91:Core/Src/main.c ****   MX_GPIO_Init();
  92:Core/Src/main.c ****   MX_USART2_UART_Init();
  93:Core/Src/main.c ****   MX_TIM2_Init();
  94:Core/Src/main.c **** 
  95:Core/Src/main.c ****   /* Initialize interrupts */
  96:Core/Src/main.c ****   MX_NVIC_Init();
  97:Core/Src/main.c ****   /* USER CODE BEGIN 2 */
  98:Core/Src/main.c **** 
  99:Core/Src/main.c ****   //------------ Normal Timer ------------------
 100:Core/Src/main.c ****   // HAL_TIM_Base_Start_IT(&htim1);
 101:Core/Src/main.c **** 
 102:Core/Src/main.c ****   //----------  Input Capture Example ----------
 103:Core/Src/main.c ****   // HAL_TIM_IC_Start_IT(&htim2, TIM_CHANNEL_1);
 104:Core/Src/main.c ****   // HAL_TIM_IC_Start_IT(&htim2, TIM_CHANNEL_2);
 105:Core/Src/main.c **** 
 106:Core/Src/main.c ****   HAL_TIM_OC_Start(&htim2, TIM_CHANNEL_1);
 107:Core/Src/main.c ****   HAL_TIM_OC_Start_IT(&htim2, TIM_CHANNEL_2);
 108:Core/Src/main.c **** 
 109:Core/Src/main.c ****   /* USER CODE END 2 */
 110:Core/Src/main.c **** 
 111:Core/Src/main.c ****   /* Infinite loop */
 112:Core/Src/main.c ****   /* USER CODE BEGIN WHILE */
 113:Core/Src/main.c ****   while (1)
 114:Core/Src/main.c ****   {
 115:Core/Src/main.c ****     /* USER CODE END WHILE */
 116:Core/Src/main.c **** 
 117:Core/Src/main.c ****     /* USER CODE BEGIN 3 */
 118:Core/Src/main.c ****   }
 119:Core/Src/main.c ****   /* USER CODE END 3 */
 120:Core/Src/main.c **** }
 121:Core/Src/main.c **** 
 122:Core/Src/main.c **** /**
 123:Core/Src/main.c ****  * @brief System Clock Configuration
 124:Core/Src/main.c ****  * @retval None
 125:Core/Src/main.c ****  */
 126:Core/Src/main.c **** void SystemClock_Config(void)
 127:Core/Src/main.c **** {
 128:Core/Src/main.c ****   RCC_OscInitTypeDef RCC_OscInitStruct = {0};
 129:Core/Src/main.c ****   RCC_ClkInitTypeDef RCC_ClkInitStruct = {0};
 130:Core/Src/main.c **** 
 131:Core/Src/main.c ****   /** Configure the main internal regulator output voltage
 132:Core/Src/main.c ****    */
 133:Core/Src/main.c ****   __HAL_RCC_PWR_CLK_ENABLE();
 134:Core/Src/main.c ****   __HAL_PWR_VOLTAGESCALING_CONFIG(PWR_REGULATOR_VOLTAGE_SCALE1);
 135:Core/Src/main.c **** 
 136:Core/Src/main.c ****   /** Initializes the RCC Oscillators according to the specified parameters
 137:Core/Src/main.c ****    * in the RCC_OscInitTypeDef structure.
 138:Core/Src/main.c ****    */
 139:Core/Src/main.c ****   RCC_OscInitStruct.OscillatorType = RCC_OSCILLATORTYPE_HSI;
 140:Core/Src/main.c ****   RCC_OscInitStruct.HSIState = RCC_HSI_ON;
 141:Core/Src/main.c ****   RCC_OscInitStruct.HSICalibrationValue = RCC_HSICALIBRATION_DEFAULT;
 142:Core/Src/main.c ****   RCC_OscInitStruct.PLL.PLLState = RCC_PLL_ON;
 143:Core/Src/main.c ****   RCC_OscInitStruct.PLL.PLLSource = RCC_PLLSOURCE_HSI;
 144:Core/Src/main.c ****   RCC_OscInitStruct.PLL.PLLM = 16;
 145:Core/Src/main.c ****   RCC_OscInitStruct.PLL.PLLN = 336;
ARM GAS  C:\Users\danie\AppData\Local\Temp\ccY4y8KA.s 			page 4


 146:Core/Src/main.c ****   RCC_OscInitStruct.PLL.PLLP = RCC_PLLP_DIV4;
 147:Core/Src/main.c ****   RCC_OscInitStruct.PLL.PLLQ = 4;
 148:Core/Src/main.c ****   if (HAL_RCC_OscConfig(&RCC_OscInitStruct) != HAL_OK)
 149:Core/Src/main.c ****   {
 150:Core/Src/main.c ****     Error_Handler();
 151:Core/Src/main.c ****   }
 152:Core/Src/main.c **** 
 153:Core/Src/main.c ****   /** Initializes the CPU, AHB and APB buses clocks
 154:Core/Src/main.c ****    */
 155:Core/Src/main.c ****   RCC_ClkInitStruct.ClockType = RCC_CLOCKTYPE_HCLK | RCC_CLOCKTYPE_SYSCLK | RCC_CLOCKTYPE_PCLK1 | R
 156:Core/Src/main.c ****   RCC_ClkInitStruct.SYSCLKSource = RCC_SYSCLKSOURCE_PLLCLK;
 157:Core/Src/main.c ****   RCC_ClkInitStruct.AHBCLKDivider = RCC_SYSCLK_DIV1;
 158:Core/Src/main.c ****   RCC_ClkInitStruct.APB1CLKDivider = RCC_HCLK_DIV2;
 159:Core/Src/main.c ****   RCC_ClkInitStruct.APB2CLKDivider = RCC_HCLK_DIV1;
 160:Core/Src/main.c **** 
 161:Core/Src/main.c ****   if (HAL_RCC_ClockConfig(&RCC_ClkInitStruct, FLASH_LATENCY_2) != HAL_OK)
 162:Core/Src/main.c ****   {
 163:Core/Src/main.c ****     Error_Handler();
 164:Core/Src/main.c ****   }
 165:Core/Src/main.c **** }
 166:Core/Src/main.c **** 
 167:Core/Src/main.c **** /**
 168:Core/Src/main.c ****  * @brief NVIC Configuration.
 169:Core/Src/main.c ****  * @retval None
 170:Core/Src/main.c ****  */
 171:Core/Src/main.c **** static void MX_NVIC_Init(void)
 172:Core/Src/main.c **** {
  28              		.loc 1 172 1 view -0
  29              		.cfi_startproc
  30              		@ args = 0, pretend = 0, frame = 0
  31              		@ frame_needed = 0, uses_anonymous_args = 0
  32 0000 08B5     		push	{r3, lr}
  33              		.cfi_def_cfa_offset 8
  34              		.cfi_offset 3, -8
  35              		.cfi_offset 14, -4
 173:Core/Src/main.c ****   /* TIM2_IRQn interrupt configuration */
 174:Core/Src/main.c ****   HAL_NVIC_SetPriority(TIM2_IRQn, 0, 0);
  36              		.loc 1 174 3 view .LVU1
  37 0002 0022     		movs	r2, #0
  38 0004 1146     		mov	r1, r2
  39 0006 1C20     		movs	r0, #28
  40 0008 FFF7FEFF 		bl	HAL_NVIC_SetPriority
  41              	.LVL0:
 175:Core/Src/main.c ****   HAL_NVIC_EnableIRQ(TIM2_IRQn);
  42              		.loc 1 175 3 view .LVU2
  43 000c 1C20     		movs	r0, #28
  44 000e FFF7FEFF 		bl	HAL_NVIC_EnableIRQ
  45              	.LVL1:
 176:Core/Src/main.c **** }
  46              		.loc 1 176 1 is_stmt 0 view .LVU3
  47 0012 08BD     		pop	{r3, pc}
  48              		.cfi_endproc
  49              	.LFE132:
  51              		.section	.text.HAL_TIM_OC_DelayElapsedCallback,"ax",%progbits
  52              		.align	1
  53              		.global	HAL_TIM_OC_DelayElapsedCallback
  54              		.syntax unified
ARM GAS  C:\Users\danie\AppData\Local\Temp\ccY4y8KA.s 			page 5


  55              		.thumb
  56              		.thumb_func
  58              	HAL_TIM_OC_DelayElapsedCallback:
  59              	.LVL2:
  60              	.LFB133:
 177:Core/Src/main.c **** 
 178:Core/Src/main.c **** /* USER CODE BEGIN 4 */
 179:Core/Src/main.c **** 
 180:Core/Src/main.c **** //-------------- Normal Timer ------------
 181:Core/Src/main.c **** // void HAL_TIM_PeriodElapsedCallback(TIM_HandleTypeDef *htim)
 182:Core/Src/main.c **** // {
 183:Core/Src/main.c **** //   if ((htim->Instance) == TIM1)
 184:Core/Src/main.c **** //   {
 185:Core/Src/main.c **** //     HAL_GPIO_TogglePin(LD2_GPIO_Port, LD2_Pin);
 186:Core/Src/main.c **** //   }
 187:Core/Src/main.c **** // }
 188:Core/Src/main.c **** //----------  Input Capture Example -----
 189:Core/Src/main.c **** 
 190:Core/Src/main.c **** // void HAL_TIM_IC_CaptureCallback(TIM_HandleTypeDef *htim)
 191:Core/Src/main.c **** // {
 192:Core/Src/main.c **** //   if (htim->Instance == TIM2)
 193:Core/Src/main.c **** //   {
 194:Core/Src/main.c **** //     if (htim->Channel == HAL_TIM_ACTIVE_CHANNEL_1)
 195:Core/Src/main.c **** //     {
 196:Core/Src/main.c **** //       TimerCounterDown = __HAL_TIM_GetCompare(htim, TIM_CHANNEL_1);
 197:Core/Src/main.c **** //       HAL_TIM_IC_Start_IT(htim, TIM_CHANNEL_1);
 198:Core/Src/main.c **** //     }
 199:Core/Src/main.c **** 
 200:Core/Src/main.c **** //     if (htim->Channel == HAL_TIM_ACTIVE_CHANNEL_2)
 201:Core/Src/main.c **** //     {
 202:Core/Src/main.c **** //       TimerCounterUp = __HAL_TIM_GetCompare(htim, TIM_CHANNEL_2);
 203:Core/Src/main.c **** //       HAL_TIM_IC_Start_IT(htim, TIM_CHANNEL_2);
 204:Core/Src/main.c **** //     }
 205:Core/Src/main.c **** //   }
 206:Core/Src/main.c **** // }
 207:Core/Src/main.c **** 
 208:Core/Src/main.c **** HAL_TIM_OC_DelayElapsedCallback(TIM_HandleTypeDef *htim)
 209:Core/Src/main.c **** {
  61              		.loc 1 209 1 is_stmt 1 view -0
  62              		.cfi_startproc
  63              		@ args = 0, pretend = 0, frame = 0
  64              		@ frame_needed = 0, uses_anonymous_args = 0
 210:Core/Src/main.c ****   static uint8_t i; // Variable for CCR modification
  65              		.loc 1 210 3 view .LVU5
 211:Core/Src/main.c **** 
 212:Core/Src/main.c ****   if (htim->Instance == TIM2)
  66              		.loc 1 212 3 view .LVU6
  67              		.loc 1 212 11 is_stmt 0 view .LVU7
  68 0000 0368     		ldr	r3, [r0]
  69              		.loc 1 212 6 view .LVU8
  70 0002 B3F1804F 		cmp	r3, #1073741824
  71 0006 00D0     		beq	.L11
  72 0008 7047     		bx	lr
  73              	.L11:
 209:Core/Src/main.c ****   static uint8_t i; // Variable for CCR modification
  74              		.loc 1 209 1 view .LVU9
  75 000a 10B5     		push	{r4, lr}
ARM GAS  C:\Users\danie\AppData\Local\Temp\ccY4y8KA.s 			page 6


  76              		.cfi_def_cfa_offset 8
  77              		.cfi_offset 4, -8
  78              		.cfi_offset 14, -4
  79 000c 0446     		mov	r4, r0
 213:Core/Src/main.c ****   {
 214:Core/Src/main.c ****     HAL_GPIO_TogglePin(LD3_GPIO_Port, LD3_Pin);
  80              		.loc 1 214 5 is_stmt 1 view .LVU10
  81 000e 0121     		movs	r1, #1
  82 0010 0A48     		ldr	r0, .L12
  83              	.LVL3:
  84              		.loc 1 214 5 is_stmt 0 view .LVU11
  85 0012 FFF7FEFF 		bl	HAL_GPIO_TogglePin
  86              	.LVL4:
 215:Core/Src/main.c ****     if (i % 2)
  87              		.loc 1 215 5 is_stmt 1 view .LVU12
  88              		.loc 1 215 9 is_stmt 0 view .LVU13
  89 0016 0A4B     		ldr	r3, .L12+4
  90 0018 1B78     		ldrb	r3, [r3]	@ zero_extendqisi2
  91              		.loc 1 215 8 view .LVU14
  92 001a 13F0010F 		tst	r3, #1
  93 001e 07D0     		beq	.L5
 216:Core/Src/main.c ****     {
 217:Core/Src/main.c ****       __HAL_TIM_SET_COMPARE(htim, TIM_CHANNEL_2, 1000);
  94              		.loc 1 217 7 is_stmt 1 view .LVU15
  95 0020 2268     		ldr	r2, [r4]
  96 0022 4FF47A71 		mov	r1, #1000
  97 0026 9163     		str	r1, [r2, #56]
  98              	.L6:
 218:Core/Src/main.c ****     }
 219:Core/Src/main.c ****     else
 220:Core/Src/main.c ****     {
 221:Core/Src/main.c ****       __HAL_TIM_SET_COMPARE(htim, TIM_CHANNEL_2, 6000);
 222:Core/Src/main.c ****     }
 223:Core/Src/main.c ****     i++;
  99              		.loc 1 223 5 view .LVU16
 100              		.loc 1 223 6 is_stmt 0 view .LVU17
 101 0028 0133     		adds	r3, r3, #1
 102 002a 054A     		ldr	r2, .L12+4
 103 002c 1370     		strb	r3, [r2]
 224:Core/Src/main.c ****   }
 225:Core/Src/main.c **** }
 104              		.loc 1 225 1 view .LVU18
 105 002e 10BD     		pop	{r4, pc}
 106              	.LVL5:
 107              	.L5:
 221:Core/Src/main.c ****     }
 108              		.loc 1 221 7 is_stmt 1 view .LVU19
 109 0030 2268     		ldr	r2, [r4]
 110 0032 41F27071 		movw	r1, #6000
 111 0036 9163     		str	r1, [r2, #56]
 112 0038 F6E7     		b	.L6
 113              	.L13:
 114 003a 00BF     		.align	2
 115              	.L12:
 116 003c 00000240 		.word	1073872896
 117 0040 00000000 		.word	.LANCHOR0
 118              		.cfi_endproc
ARM GAS  C:\Users\danie\AppData\Local\Temp\ccY4y8KA.s 			page 7


 119              	.LFE133:
 121              		.section	.text.Error_Handler,"ax",%progbits
 122              		.align	1
 123              		.global	Error_Handler
 124              		.syntax unified
 125              		.thumb
 126              		.thumb_func
 128              	Error_Handler:
 129              	.LFB134:
 226:Core/Src/main.c **** /* USER CODE END 4 */
 227:Core/Src/main.c **** 
 228:Core/Src/main.c **** /**
 229:Core/Src/main.c ****  * @brief  This function is executed in case of error occurrence.
 230:Core/Src/main.c ****  * @retval None
 231:Core/Src/main.c ****  */
 232:Core/Src/main.c **** void Error_Handler(void)
 233:Core/Src/main.c **** {
 130              		.loc 1 233 1 view -0
 131              		.cfi_startproc
 132              		@ Volatile: function does not return.
 133              		@ args = 0, pretend = 0, frame = 0
 134              		@ frame_needed = 0, uses_anonymous_args = 0
 135              		@ link register save eliminated.
 234:Core/Src/main.c ****   /* USER CODE BEGIN Error_Handler_Debug */
 235:Core/Src/main.c ****   /* User can add his own implementation to report the HAL error return state */
 236:Core/Src/main.c ****   __disable_irq();
 136              		.loc 1 236 3 view .LVU21
 137              	.LBB4:
 138              	.LBI4:
 139              		.file 2 "Drivers/CMSIS/Include/cmsis_gcc.h"
   1:Drivers/CMSIS/Include/cmsis_gcc.h **** /**************************************************************************//**
   2:Drivers/CMSIS/Include/cmsis_gcc.h ****  * @file     cmsis_gcc.h
   3:Drivers/CMSIS/Include/cmsis_gcc.h ****  * @brief    CMSIS compiler GCC header file
   4:Drivers/CMSIS/Include/cmsis_gcc.h ****  * @version  V5.0.4
   5:Drivers/CMSIS/Include/cmsis_gcc.h ****  * @date     09. April 2018
   6:Drivers/CMSIS/Include/cmsis_gcc.h ****  ******************************************************************************/
   7:Drivers/CMSIS/Include/cmsis_gcc.h **** /*
   8:Drivers/CMSIS/Include/cmsis_gcc.h ****  * Copyright (c) 2009-2018 Arm Limited. All rights reserved.
   9:Drivers/CMSIS/Include/cmsis_gcc.h ****  *
  10:Drivers/CMSIS/Include/cmsis_gcc.h ****  * SPDX-License-Identifier: Apache-2.0
  11:Drivers/CMSIS/Include/cmsis_gcc.h ****  *
  12:Drivers/CMSIS/Include/cmsis_gcc.h ****  * Licensed under the Apache License, Version 2.0 (the License); you may
  13:Drivers/CMSIS/Include/cmsis_gcc.h ****  * not use this file except in compliance with the License.
  14:Drivers/CMSIS/Include/cmsis_gcc.h ****  * You may obtain a copy of the License at
  15:Drivers/CMSIS/Include/cmsis_gcc.h ****  *
  16:Drivers/CMSIS/Include/cmsis_gcc.h ****  * www.apache.org/licenses/LICENSE-2.0
  17:Drivers/CMSIS/Include/cmsis_gcc.h ****  *
  18:Drivers/CMSIS/Include/cmsis_gcc.h ****  * Unless required by applicable law or agreed to in writing, software
  19:Drivers/CMSIS/Include/cmsis_gcc.h ****  * distributed under the License is distributed on an AS IS BASIS, WITHOUT
  20:Drivers/CMSIS/Include/cmsis_gcc.h ****  * WARRANTIES OR CONDITIONS OF ANY KIND, either express or implied.
  21:Drivers/CMSIS/Include/cmsis_gcc.h ****  * See the License for the specific language governing permissions and
  22:Drivers/CMSIS/Include/cmsis_gcc.h ****  * limitations under the License.
  23:Drivers/CMSIS/Include/cmsis_gcc.h ****  */
  24:Drivers/CMSIS/Include/cmsis_gcc.h **** 
  25:Drivers/CMSIS/Include/cmsis_gcc.h **** #ifndef __CMSIS_GCC_H
  26:Drivers/CMSIS/Include/cmsis_gcc.h **** #define __CMSIS_GCC_H
  27:Drivers/CMSIS/Include/cmsis_gcc.h **** 
ARM GAS  C:\Users\danie\AppData\Local\Temp\ccY4y8KA.s 			page 8


  28:Drivers/CMSIS/Include/cmsis_gcc.h **** /* ignore some GCC warnings */
  29:Drivers/CMSIS/Include/cmsis_gcc.h **** #pragma GCC diagnostic push
  30:Drivers/CMSIS/Include/cmsis_gcc.h **** #pragma GCC diagnostic ignored "-Wsign-conversion"
  31:Drivers/CMSIS/Include/cmsis_gcc.h **** #pragma GCC diagnostic ignored "-Wconversion"
  32:Drivers/CMSIS/Include/cmsis_gcc.h **** #pragma GCC diagnostic ignored "-Wunused-parameter"
  33:Drivers/CMSIS/Include/cmsis_gcc.h **** 
  34:Drivers/CMSIS/Include/cmsis_gcc.h **** /* Fallback for __has_builtin */
  35:Drivers/CMSIS/Include/cmsis_gcc.h **** #ifndef __has_builtin
  36:Drivers/CMSIS/Include/cmsis_gcc.h ****   #define __has_builtin(x) (0)
  37:Drivers/CMSIS/Include/cmsis_gcc.h **** #endif
  38:Drivers/CMSIS/Include/cmsis_gcc.h **** 
  39:Drivers/CMSIS/Include/cmsis_gcc.h **** /* CMSIS compiler specific defines */
  40:Drivers/CMSIS/Include/cmsis_gcc.h **** #ifndef   __ASM
  41:Drivers/CMSIS/Include/cmsis_gcc.h ****   #define __ASM                                  __asm
  42:Drivers/CMSIS/Include/cmsis_gcc.h **** #endif
  43:Drivers/CMSIS/Include/cmsis_gcc.h **** #ifndef   __INLINE
  44:Drivers/CMSIS/Include/cmsis_gcc.h ****   #define __INLINE                               inline
  45:Drivers/CMSIS/Include/cmsis_gcc.h **** #endif
  46:Drivers/CMSIS/Include/cmsis_gcc.h **** #ifndef   __STATIC_INLINE
  47:Drivers/CMSIS/Include/cmsis_gcc.h ****   #define __STATIC_INLINE                        static inline
  48:Drivers/CMSIS/Include/cmsis_gcc.h **** #endif
  49:Drivers/CMSIS/Include/cmsis_gcc.h **** #ifndef   __STATIC_FORCEINLINE                 
  50:Drivers/CMSIS/Include/cmsis_gcc.h ****   #define __STATIC_FORCEINLINE                   __attribute__((always_inline)) static inline
  51:Drivers/CMSIS/Include/cmsis_gcc.h **** #endif                                           
  52:Drivers/CMSIS/Include/cmsis_gcc.h **** #ifndef   __NO_RETURN
  53:Drivers/CMSIS/Include/cmsis_gcc.h ****   #define __NO_RETURN                            __attribute__((__noreturn__))
  54:Drivers/CMSIS/Include/cmsis_gcc.h **** #endif
  55:Drivers/CMSIS/Include/cmsis_gcc.h **** #ifndef   __USED
  56:Drivers/CMSIS/Include/cmsis_gcc.h ****   #define __USED                                 __attribute__((used))
  57:Drivers/CMSIS/Include/cmsis_gcc.h **** #endif
  58:Drivers/CMSIS/Include/cmsis_gcc.h **** #ifndef   __WEAK
  59:Drivers/CMSIS/Include/cmsis_gcc.h ****   #define __WEAK                                 __attribute__((weak))
  60:Drivers/CMSIS/Include/cmsis_gcc.h **** #endif
  61:Drivers/CMSIS/Include/cmsis_gcc.h **** #ifndef   __PACKED
  62:Drivers/CMSIS/Include/cmsis_gcc.h ****   #define __PACKED                               __attribute__((packed, aligned(1)))
  63:Drivers/CMSIS/Include/cmsis_gcc.h **** #endif
  64:Drivers/CMSIS/Include/cmsis_gcc.h **** #ifndef   __PACKED_STRUCT
  65:Drivers/CMSIS/Include/cmsis_gcc.h ****   #define __PACKED_STRUCT                        struct __attribute__((packed, aligned(1)))
  66:Drivers/CMSIS/Include/cmsis_gcc.h **** #endif
  67:Drivers/CMSIS/Include/cmsis_gcc.h **** #ifndef   __PACKED_UNION
  68:Drivers/CMSIS/Include/cmsis_gcc.h ****   #define __PACKED_UNION                         union __attribute__((packed, aligned(1)))
  69:Drivers/CMSIS/Include/cmsis_gcc.h **** #endif
  70:Drivers/CMSIS/Include/cmsis_gcc.h **** #ifndef   __UNALIGNED_UINT32        /* deprecated */
  71:Drivers/CMSIS/Include/cmsis_gcc.h ****   #pragma GCC diagnostic push
  72:Drivers/CMSIS/Include/cmsis_gcc.h ****   #pragma GCC diagnostic ignored "-Wpacked"
  73:Drivers/CMSIS/Include/cmsis_gcc.h ****   #pragma GCC diagnostic ignored "-Wattributes"
  74:Drivers/CMSIS/Include/cmsis_gcc.h ****   struct __attribute__((packed)) T_UINT32 { uint32_t v; };
  75:Drivers/CMSIS/Include/cmsis_gcc.h ****   #pragma GCC diagnostic pop
  76:Drivers/CMSIS/Include/cmsis_gcc.h ****   #define __UNALIGNED_UINT32(x)                  (((struct T_UINT32 *)(x))->v)
  77:Drivers/CMSIS/Include/cmsis_gcc.h **** #endif
  78:Drivers/CMSIS/Include/cmsis_gcc.h **** #ifndef   __UNALIGNED_UINT16_WRITE
  79:Drivers/CMSIS/Include/cmsis_gcc.h ****   #pragma GCC diagnostic push
  80:Drivers/CMSIS/Include/cmsis_gcc.h ****   #pragma GCC diagnostic ignored "-Wpacked"
  81:Drivers/CMSIS/Include/cmsis_gcc.h ****   #pragma GCC diagnostic ignored "-Wattributes"
  82:Drivers/CMSIS/Include/cmsis_gcc.h ****   __PACKED_STRUCT T_UINT16_WRITE { uint16_t v; };
  83:Drivers/CMSIS/Include/cmsis_gcc.h ****   #pragma GCC diagnostic pop
  84:Drivers/CMSIS/Include/cmsis_gcc.h ****   #define __UNALIGNED_UINT16_WRITE(addr, val)    (void)((((struct T_UINT16_WRITE *)(void *)(addr))-
ARM GAS  C:\Users\danie\AppData\Local\Temp\ccY4y8KA.s 			page 9


  85:Drivers/CMSIS/Include/cmsis_gcc.h **** #endif
  86:Drivers/CMSIS/Include/cmsis_gcc.h **** #ifndef   __UNALIGNED_UINT16_READ
  87:Drivers/CMSIS/Include/cmsis_gcc.h ****   #pragma GCC diagnostic push
  88:Drivers/CMSIS/Include/cmsis_gcc.h ****   #pragma GCC diagnostic ignored "-Wpacked"
  89:Drivers/CMSIS/Include/cmsis_gcc.h ****   #pragma GCC diagnostic ignored "-Wattributes"
  90:Drivers/CMSIS/Include/cmsis_gcc.h ****   __PACKED_STRUCT T_UINT16_READ { uint16_t v; };
  91:Drivers/CMSIS/Include/cmsis_gcc.h ****   #pragma GCC diagnostic pop
  92:Drivers/CMSIS/Include/cmsis_gcc.h ****   #define __UNALIGNED_UINT16_READ(addr)          (((const struct T_UINT16_READ *)(const void *)(add
  93:Drivers/CMSIS/Include/cmsis_gcc.h **** #endif
  94:Drivers/CMSIS/Include/cmsis_gcc.h **** #ifndef   __UNALIGNED_UINT32_WRITE
  95:Drivers/CMSIS/Include/cmsis_gcc.h ****   #pragma GCC diagnostic push
  96:Drivers/CMSIS/Include/cmsis_gcc.h ****   #pragma GCC diagnostic ignored "-Wpacked"
  97:Drivers/CMSIS/Include/cmsis_gcc.h ****   #pragma GCC diagnostic ignored "-Wattributes"
  98:Drivers/CMSIS/Include/cmsis_gcc.h ****   __PACKED_STRUCT T_UINT32_WRITE { uint32_t v; };
  99:Drivers/CMSIS/Include/cmsis_gcc.h ****   #pragma GCC diagnostic pop
 100:Drivers/CMSIS/Include/cmsis_gcc.h ****   #define __UNALIGNED_UINT32_WRITE(addr, val)    (void)((((struct T_UINT32_WRITE *)(void *)(addr))-
 101:Drivers/CMSIS/Include/cmsis_gcc.h **** #endif
 102:Drivers/CMSIS/Include/cmsis_gcc.h **** #ifndef   __UNALIGNED_UINT32_READ
 103:Drivers/CMSIS/Include/cmsis_gcc.h ****   #pragma GCC diagnostic push
 104:Drivers/CMSIS/Include/cmsis_gcc.h ****   #pragma GCC diagnostic ignored "-Wpacked"
 105:Drivers/CMSIS/Include/cmsis_gcc.h ****   #pragma GCC diagnostic ignored "-Wattributes"
 106:Drivers/CMSIS/Include/cmsis_gcc.h ****   __PACKED_STRUCT T_UINT32_READ { uint32_t v; };
 107:Drivers/CMSIS/Include/cmsis_gcc.h ****   #pragma GCC diagnostic pop
 108:Drivers/CMSIS/Include/cmsis_gcc.h ****   #define __UNALIGNED_UINT32_READ(addr)          (((const struct T_UINT32_READ *)(const void *)(add
 109:Drivers/CMSIS/Include/cmsis_gcc.h **** #endif
 110:Drivers/CMSIS/Include/cmsis_gcc.h **** #ifndef   __ALIGNED
 111:Drivers/CMSIS/Include/cmsis_gcc.h ****   #define __ALIGNED(x)                           __attribute__((aligned(x)))
 112:Drivers/CMSIS/Include/cmsis_gcc.h **** #endif
 113:Drivers/CMSIS/Include/cmsis_gcc.h **** #ifndef   __RESTRICT
 114:Drivers/CMSIS/Include/cmsis_gcc.h ****   #define __RESTRICT                             __restrict
 115:Drivers/CMSIS/Include/cmsis_gcc.h **** #endif
 116:Drivers/CMSIS/Include/cmsis_gcc.h **** 
 117:Drivers/CMSIS/Include/cmsis_gcc.h **** 
 118:Drivers/CMSIS/Include/cmsis_gcc.h **** /* ###########################  Core Function Access  ########################### */
 119:Drivers/CMSIS/Include/cmsis_gcc.h **** /** \ingroup  CMSIS_Core_FunctionInterface
 120:Drivers/CMSIS/Include/cmsis_gcc.h ****     \defgroup CMSIS_Core_RegAccFunctions CMSIS Core Register Access Functions
 121:Drivers/CMSIS/Include/cmsis_gcc.h ****   @{
 122:Drivers/CMSIS/Include/cmsis_gcc.h ****  */
 123:Drivers/CMSIS/Include/cmsis_gcc.h **** 
 124:Drivers/CMSIS/Include/cmsis_gcc.h **** /**
 125:Drivers/CMSIS/Include/cmsis_gcc.h ****   \brief   Enable IRQ Interrupts
 126:Drivers/CMSIS/Include/cmsis_gcc.h ****   \details Enables IRQ interrupts by clearing the I-bit in the CPSR.
 127:Drivers/CMSIS/Include/cmsis_gcc.h ****            Can only be executed in Privileged modes.
 128:Drivers/CMSIS/Include/cmsis_gcc.h ****  */
 129:Drivers/CMSIS/Include/cmsis_gcc.h **** __STATIC_FORCEINLINE void __enable_irq(void)
 130:Drivers/CMSIS/Include/cmsis_gcc.h **** {
 131:Drivers/CMSIS/Include/cmsis_gcc.h ****   __ASM volatile ("cpsie i" : : : "memory");
 132:Drivers/CMSIS/Include/cmsis_gcc.h **** }
 133:Drivers/CMSIS/Include/cmsis_gcc.h **** 
 134:Drivers/CMSIS/Include/cmsis_gcc.h **** 
 135:Drivers/CMSIS/Include/cmsis_gcc.h **** /**
 136:Drivers/CMSIS/Include/cmsis_gcc.h ****   \brief   Disable IRQ Interrupts
 137:Drivers/CMSIS/Include/cmsis_gcc.h ****   \details Disables IRQ interrupts by setting the I-bit in the CPSR.
 138:Drivers/CMSIS/Include/cmsis_gcc.h ****            Can only be executed in Privileged modes.
 139:Drivers/CMSIS/Include/cmsis_gcc.h ****  */
 140:Drivers/CMSIS/Include/cmsis_gcc.h **** __STATIC_FORCEINLINE void __disable_irq(void)
 140              		.loc 2 140 27 view .LVU22
ARM GAS  C:\Users\danie\AppData\Local\Temp\ccY4y8KA.s 			page 10


 141              	.LBB5:
 141:Drivers/CMSIS/Include/cmsis_gcc.h **** {
 142:Drivers/CMSIS/Include/cmsis_gcc.h ****   __ASM volatile ("cpsid i" : : : "memory");
 142              		.loc 2 142 3 view .LVU23
 143              		.syntax unified
 144              	@ 142 "Drivers/CMSIS/Include/cmsis_gcc.h" 1
 145 0000 72B6     		cpsid i
 146              	@ 0 "" 2
 147              		.thumb
 148              		.syntax unified
 149              	.L15:
 150              	.LBE5:
 151              	.LBE4:
 237:Core/Src/main.c ****   while (1)
 152              		.loc 1 237 3 discriminator 1 view .LVU24
 238:Core/Src/main.c ****   {
 239:Core/Src/main.c ****   }
 153              		.loc 1 239 3 discriminator 1 view .LVU25
 237:Core/Src/main.c ****   while (1)
 154              		.loc 1 237 9 discriminator 1 view .LVU26
 155 0002 FEE7     		b	.L15
 156              		.cfi_endproc
 157              	.LFE134:
 159              		.section	.text.SystemClock_Config,"ax",%progbits
 160              		.align	1
 161              		.global	SystemClock_Config
 162              		.syntax unified
 163              		.thumb
 164              		.thumb_func
 166              	SystemClock_Config:
 167              	.LFB131:
 127:Core/Src/main.c ****   RCC_OscInitTypeDef RCC_OscInitStruct = {0};
 168              		.loc 1 127 1 view -0
 169              		.cfi_startproc
 170              		@ args = 0, pretend = 0, frame = 80
 171              		@ frame_needed = 0, uses_anonymous_args = 0
 172 0000 00B5     		push	{lr}
 173              		.cfi_def_cfa_offset 4
 174              		.cfi_offset 14, -4
 175 0002 95B0     		sub	sp, sp, #84
 176              		.cfi_def_cfa_offset 88
 128:Core/Src/main.c ****   RCC_ClkInitTypeDef RCC_ClkInitStruct = {0};
 177              		.loc 1 128 3 view .LVU28
 128:Core/Src/main.c ****   RCC_ClkInitTypeDef RCC_ClkInitStruct = {0};
 178              		.loc 1 128 22 is_stmt 0 view .LVU29
 179 0004 3022     		movs	r2, #48
 180 0006 0021     		movs	r1, #0
 181 0008 08A8     		add	r0, sp, #32
 182 000a FFF7FEFF 		bl	memset
 183              	.LVL6:
 129:Core/Src/main.c **** 
 184              		.loc 1 129 3 is_stmt 1 view .LVU30
 129:Core/Src/main.c **** 
 185              		.loc 1 129 22 is_stmt 0 view .LVU31
 186 000e 0023     		movs	r3, #0
 187 0010 0393     		str	r3, [sp, #12]
 188 0012 0493     		str	r3, [sp, #16]
ARM GAS  C:\Users\danie\AppData\Local\Temp\ccY4y8KA.s 			page 11


 189 0014 0593     		str	r3, [sp, #20]
 190 0016 0693     		str	r3, [sp, #24]
 191 0018 0793     		str	r3, [sp, #28]
 133:Core/Src/main.c ****   __HAL_PWR_VOLTAGESCALING_CONFIG(PWR_REGULATOR_VOLTAGE_SCALE1);
 192              		.loc 1 133 3 is_stmt 1 view .LVU32
 193              	.LBB6:
 133:Core/Src/main.c ****   __HAL_PWR_VOLTAGESCALING_CONFIG(PWR_REGULATOR_VOLTAGE_SCALE1);
 194              		.loc 1 133 3 view .LVU33
 195 001a 0193     		str	r3, [sp, #4]
 133:Core/Src/main.c ****   __HAL_PWR_VOLTAGESCALING_CONFIG(PWR_REGULATOR_VOLTAGE_SCALE1);
 196              		.loc 1 133 3 view .LVU34
 197 001c 1E4A     		ldr	r2, .L22
 198 001e 116C     		ldr	r1, [r2, #64]
 199 0020 41F08051 		orr	r1, r1, #268435456
 200 0024 1164     		str	r1, [r2, #64]
 133:Core/Src/main.c ****   __HAL_PWR_VOLTAGESCALING_CONFIG(PWR_REGULATOR_VOLTAGE_SCALE1);
 201              		.loc 1 133 3 view .LVU35
 202 0026 126C     		ldr	r2, [r2, #64]
 203 0028 02F08052 		and	r2, r2, #268435456
 204 002c 0192     		str	r2, [sp, #4]
 133:Core/Src/main.c ****   __HAL_PWR_VOLTAGESCALING_CONFIG(PWR_REGULATOR_VOLTAGE_SCALE1);
 205              		.loc 1 133 3 view .LVU36
 206 002e 019A     		ldr	r2, [sp, #4]
 207              	.LBE6:
 133:Core/Src/main.c ****   __HAL_PWR_VOLTAGESCALING_CONFIG(PWR_REGULATOR_VOLTAGE_SCALE1);
 208              		.loc 1 133 3 view .LVU37
 134:Core/Src/main.c **** 
 209              		.loc 1 134 3 view .LVU38
 210              	.LBB7:
 134:Core/Src/main.c **** 
 211              		.loc 1 134 3 view .LVU39
 212 0030 0293     		str	r3, [sp, #8]
 134:Core/Src/main.c **** 
 213              		.loc 1 134 3 view .LVU40
 214 0032 1A4A     		ldr	r2, .L22+4
 215 0034 1168     		ldr	r1, [r2]
 216 0036 41F44041 		orr	r1, r1, #49152
 217 003a 1160     		str	r1, [r2]
 134:Core/Src/main.c **** 
 218              		.loc 1 134 3 view .LVU41
 219 003c 1268     		ldr	r2, [r2]
 220 003e 02F44042 		and	r2, r2, #49152
 221 0042 0292     		str	r2, [sp, #8]
 134:Core/Src/main.c **** 
 222              		.loc 1 134 3 view .LVU42
 223 0044 029A     		ldr	r2, [sp, #8]
 224              	.LBE7:
 134:Core/Src/main.c **** 
 225              		.loc 1 134 3 view .LVU43
 139:Core/Src/main.c ****   RCC_OscInitStruct.HSIState = RCC_HSI_ON;
 226              		.loc 1 139 3 view .LVU44
 139:Core/Src/main.c ****   RCC_OscInitStruct.HSIState = RCC_HSI_ON;
 227              		.loc 1 139 36 is_stmt 0 view .LVU45
 228 0046 0221     		movs	r1, #2
 229 0048 0891     		str	r1, [sp, #32]
 140:Core/Src/main.c ****   RCC_OscInitStruct.HSICalibrationValue = RCC_HSICALIBRATION_DEFAULT;
 230              		.loc 1 140 3 is_stmt 1 view .LVU46
ARM GAS  C:\Users\danie\AppData\Local\Temp\ccY4y8KA.s 			page 12


 140:Core/Src/main.c ****   RCC_OscInitStruct.HSICalibrationValue = RCC_HSICALIBRATION_DEFAULT;
 231              		.loc 1 140 30 is_stmt 0 view .LVU47
 232 004a 0122     		movs	r2, #1
 233 004c 0B92     		str	r2, [sp, #44]
 141:Core/Src/main.c ****   RCC_OscInitStruct.PLL.PLLState = RCC_PLL_ON;
 234              		.loc 1 141 3 is_stmt 1 view .LVU48
 141:Core/Src/main.c ****   RCC_OscInitStruct.PLL.PLLState = RCC_PLL_ON;
 235              		.loc 1 141 41 is_stmt 0 view .LVU49
 236 004e 1022     		movs	r2, #16
 237 0050 0C92     		str	r2, [sp, #48]
 142:Core/Src/main.c ****   RCC_OscInitStruct.PLL.PLLSource = RCC_PLLSOURCE_HSI;
 238              		.loc 1 142 3 is_stmt 1 view .LVU50
 142:Core/Src/main.c ****   RCC_OscInitStruct.PLL.PLLSource = RCC_PLLSOURCE_HSI;
 239              		.loc 1 142 34 is_stmt 0 view .LVU51
 240 0052 0E91     		str	r1, [sp, #56]
 143:Core/Src/main.c ****   RCC_OscInitStruct.PLL.PLLM = 16;
 241              		.loc 1 143 3 is_stmt 1 view .LVU52
 143:Core/Src/main.c ****   RCC_OscInitStruct.PLL.PLLM = 16;
 242              		.loc 1 143 35 is_stmt 0 view .LVU53
 243 0054 0F93     		str	r3, [sp, #60]
 144:Core/Src/main.c ****   RCC_OscInitStruct.PLL.PLLN = 336;
 244              		.loc 1 144 3 is_stmt 1 view .LVU54
 144:Core/Src/main.c ****   RCC_OscInitStruct.PLL.PLLN = 336;
 245              		.loc 1 144 30 is_stmt 0 view .LVU55
 246 0056 1092     		str	r2, [sp, #64]
 145:Core/Src/main.c ****   RCC_OscInitStruct.PLL.PLLP = RCC_PLLP_DIV4;
 247              		.loc 1 145 3 is_stmt 1 view .LVU56
 145:Core/Src/main.c ****   RCC_OscInitStruct.PLL.PLLP = RCC_PLLP_DIV4;
 248              		.loc 1 145 30 is_stmt 0 view .LVU57
 249 0058 4FF4A873 		mov	r3, #336
 250 005c 1193     		str	r3, [sp, #68]
 146:Core/Src/main.c ****   RCC_OscInitStruct.PLL.PLLQ = 4;
 251              		.loc 1 146 3 is_stmt 1 view .LVU58
 146:Core/Src/main.c ****   RCC_OscInitStruct.PLL.PLLQ = 4;
 252              		.loc 1 146 30 is_stmt 0 view .LVU59
 253 005e 0423     		movs	r3, #4
 254 0060 1293     		str	r3, [sp, #72]
 147:Core/Src/main.c ****   if (HAL_RCC_OscConfig(&RCC_OscInitStruct) != HAL_OK)
 255              		.loc 1 147 3 is_stmt 1 view .LVU60
 147:Core/Src/main.c ****   if (HAL_RCC_OscConfig(&RCC_OscInitStruct) != HAL_OK)
 256              		.loc 1 147 30 is_stmt 0 view .LVU61
 257 0062 1393     		str	r3, [sp, #76]
 148:Core/Src/main.c ****   {
 258              		.loc 1 148 3 is_stmt 1 view .LVU62
 148:Core/Src/main.c ****   {
 259              		.loc 1 148 7 is_stmt 0 view .LVU63
 260 0064 08A8     		add	r0, sp, #32
 261 0066 FFF7FEFF 		bl	HAL_RCC_OscConfig
 262              	.LVL7:
 148:Core/Src/main.c ****   {
 263              		.loc 1 148 6 view .LVU64
 264 006a 80B9     		cbnz	r0, .L20
 155:Core/Src/main.c ****   RCC_ClkInitStruct.SYSCLKSource = RCC_SYSCLKSOURCE_PLLCLK;
 265              		.loc 1 155 3 is_stmt 1 view .LVU65
 155:Core/Src/main.c ****   RCC_ClkInitStruct.SYSCLKSource = RCC_SYSCLKSOURCE_PLLCLK;
 266              		.loc 1 155 31 is_stmt 0 view .LVU66
 267 006c 0F23     		movs	r3, #15
ARM GAS  C:\Users\danie\AppData\Local\Temp\ccY4y8KA.s 			page 13


 268 006e 0393     		str	r3, [sp, #12]
 156:Core/Src/main.c ****   RCC_ClkInitStruct.AHBCLKDivider = RCC_SYSCLK_DIV1;
 269              		.loc 1 156 3 is_stmt 1 view .LVU67
 156:Core/Src/main.c ****   RCC_ClkInitStruct.AHBCLKDivider = RCC_SYSCLK_DIV1;
 270              		.loc 1 156 34 is_stmt 0 view .LVU68
 271 0070 0221     		movs	r1, #2
 272 0072 0491     		str	r1, [sp, #16]
 157:Core/Src/main.c ****   RCC_ClkInitStruct.APB1CLKDivider = RCC_HCLK_DIV2;
 273              		.loc 1 157 3 is_stmt 1 view .LVU69
 157:Core/Src/main.c ****   RCC_ClkInitStruct.APB1CLKDivider = RCC_HCLK_DIV2;
 274              		.loc 1 157 35 is_stmt 0 view .LVU70
 275 0074 0023     		movs	r3, #0
 276 0076 0593     		str	r3, [sp, #20]
 158:Core/Src/main.c ****   RCC_ClkInitStruct.APB2CLKDivider = RCC_HCLK_DIV1;
 277              		.loc 1 158 3 is_stmt 1 view .LVU71
 158:Core/Src/main.c ****   RCC_ClkInitStruct.APB2CLKDivider = RCC_HCLK_DIV1;
 278              		.loc 1 158 36 is_stmt 0 view .LVU72
 279 0078 4FF48052 		mov	r2, #4096
 280 007c 0692     		str	r2, [sp, #24]
 159:Core/Src/main.c **** 
 281              		.loc 1 159 3 is_stmt 1 view .LVU73
 159:Core/Src/main.c **** 
 282              		.loc 1 159 36 is_stmt 0 view .LVU74
 283 007e 0793     		str	r3, [sp, #28]
 161:Core/Src/main.c ****   {
 284              		.loc 1 161 3 is_stmt 1 view .LVU75
 161:Core/Src/main.c ****   {
 285              		.loc 1 161 7 is_stmt 0 view .LVU76
 286 0080 03A8     		add	r0, sp, #12
 287 0082 FFF7FEFF 		bl	HAL_RCC_ClockConfig
 288              	.LVL8:
 161:Core/Src/main.c ****   {
 289              		.loc 1 161 6 view .LVU77
 290 0086 20B9     		cbnz	r0, .L21
 165:Core/Src/main.c **** 
 291              		.loc 1 165 1 view .LVU78
 292 0088 15B0     		add	sp, sp, #84
 293              		.cfi_remember_state
 294              		.cfi_def_cfa_offset 4
 295              		@ sp needed
 296 008a 5DF804FB 		ldr	pc, [sp], #4
 297              	.L20:
 298              		.cfi_restore_state
 150:Core/Src/main.c ****   }
 299              		.loc 1 150 5 is_stmt 1 view .LVU79
 300 008e FFF7FEFF 		bl	Error_Handler
 301              	.LVL9:
 302              	.L21:
 163:Core/Src/main.c ****   }
 303              		.loc 1 163 5 view .LVU80
 304 0092 FFF7FEFF 		bl	Error_Handler
 305              	.LVL10:
 306              	.L23:
 307 0096 00BF     		.align	2
 308              	.L22:
 309 0098 00380240 		.word	1073887232
 310 009c 00700040 		.word	1073770496
ARM GAS  C:\Users\danie\AppData\Local\Temp\ccY4y8KA.s 			page 14


 311              		.cfi_endproc
 312              	.LFE131:
 314              		.section	.text.main,"ax",%progbits
 315              		.align	1
 316              		.global	main
 317              		.syntax unified
 318              		.thumb
 319              		.thumb_func
 321              	main:
 322              	.LFB130:
  69:Core/Src/main.c ****   /* USER CODE BEGIN 1 */
 323              		.loc 1 69 1 view -0
 324              		.cfi_startproc
 325              		@ Volatile: function does not return.
 326              		@ args = 0, pretend = 0, frame = 0
 327              		@ frame_needed = 0, uses_anonymous_args = 0
 328 0000 08B5     		push	{r3, lr}
 329              		.cfi_def_cfa_offset 8
 330              		.cfi_offset 3, -8
 331              		.cfi_offset 14, -4
  77:Core/Src/main.c **** 
 332              		.loc 1 77 3 view .LVU82
 333 0002 FFF7FEFF 		bl	HAL_Init
 334              	.LVL11:
  84:Core/Src/main.c **** 
 335              		.loc 1 84 3 view .LVU83
 336 0006 FFF7FEFF 		bl	SystemClock_Config
 337              	.LVL12:
  91:Core/Src/main.c ****   MX_USART2_UART_Init();
 338              		.loc 1 91 3 view .LVU84
 339 000a FFF7FEFF 		bl	MX_GPIO_Init
 340              	.LVL13:
  92:Core/Src/main.c ****   MX_TIM2_Init();
 341              		.loc 1 92 3 view .LVU85
 342 000e FFF7FEFF 		bl	MX_USART2_UART_Init
 343              	.LVL14:
  93:Core/Src/main.c **** 
 344              		.loc 1 93 3 view .LVU86
 345 0012 FFF7FEFF 		bl	MX_TIM2_Init
 346              	.LVL15:
  96:Core/Src/main.c ****   /* USER CODE BEGIN 2 */
 347              		.loc 1 96 3 view .LVU87
 348 0016 FFF7FEFF 		bl	MX_NVIC_Init
 349              	.LVL16:
 106:Core/Src/main.c ****   HAL_TIM_OC_Start_IT(&htim2, TIM_CHANNEL_2);
 350              		.loc 1 106 3 view .LVU88
 351 001a 054C     		ldr	r4, .L27
 352 001c 0021     		movs	r1, #0
 353 001e 2046     		mov	r0, r4
 354 0020 FFF7FEFF 		bl	HAL_TIM_OC_Start
 355              	.LVL17:
 107:Core/Src/main.c **** 
 356              		.loc 1 107 3 view .LVU89
 357 0024 0421     		movs	r1, #4
 358 0026 2046     		mov	r0, r4
 359 0028 FFF7FEFF 		bl	HAL_TIM_OC_Start_IT
 360              	.LVL18:
ARM GAS  C:\Users\danie\AppData\Local\Temp\ccY4y8KA.s 			page 15


 361              	.L25:
 113:Core/Src/main.c ****   {
 362              		.loc 1 113 3 discriminator 1 view .LVU90
 118:Core/Src/main.c ****   /* USER CODE END 3 */
 363              		.loc 1 118 3 discriminator 1 view .LVU91
 113:Core/Src/main.c ****   {
 364              		.loc 1 113 9 discriminator 1 view .LVU92
 365 002c FEE7     		b	.L25
 366              	.L28:
 367 002e 00BF     		.align	2
 368              	.L27:
 369 0030 00000000 		.word	htim2
 370              		.cfi_endproc
 371              	.LFE130:
 373              		.section	.bss.i.0,"aw",%nobits
 374              		.set	.LANCHOR0,. + 0
 377              	i.0:
 378 0000 00       		.space	1
 379              		.text
 380              	.Letext0:
 381              		.file 3 "Drivers/CMSIS/Device/ST/STM32F4xx/Include/stm32f411xe.h"
 382              		.file 4 "c:\\users\\danie\\appdata\\roaming\\code\\user\\globalstorage\\bmd.stm32-for-vscode\\@xpa
 383              		.file 5 "c:\\users\\danie\\appdata\\roaming\\code\\user\\globalstorage\\bmd.stm32-for-vscode\\@xpa
 384              		.file 6 "Drivers/STM32F4xx_HAL_Driver/Inc/stm32f4xx_hal_def.h"
 385              		.file 7 "Drivers/STM32F4xx_HAL_Driver/Inc/stm32f4xx_hal_rcc_ex.h"
 386              		.file 8 "Drivers/STM32F4xx_HAL_Driver/Inc/stm32f4xx_hal_rcc.h"
 387              		.file 9 "Drivers/STM32F4xx_HAL_Driver/Inc/stm32f4xx_hal_dma.h"
 388              		.file 10 "Drivers/STM32F4xx_HAL_Driver/Inc/stm32f4xx_hal_tim.h"
 389              		.file 11 "Drivers/STM32F4xx_HAL_Driver/Inc/stm32f4xx_hal_gpio.h"
 390              		.file 12 "Drivers/STM32F4xx_HAL_Driver/Inc/stm32f4xx_hal_cortex.h"
 391              		.file 13 "Core/Inc/tim.h"
 392              		.file 14 "Core/Inc/usart.h"
 393              		.file 15 "Core/Inc/gpio.h"
 394              		.file 16 "Drivers/STM32F4xx_HAL_Driver/Inc/stm32f4xx_hal.h"
 395              		.file 17 "<built-in>"
ARM GAS  C:\Users\danie\AppData\Local\Temp\ccY4y8KA.s 			page 16

