ARM GAS  C:\Users\danie\AppData\Local\Temp\cciCyzhz.s 			page 1


   1              		.cpu cortex-m4
   2              		.arch armv7e-m
   3              		.fpu fpv4-sp-d16
   4              		.eabi_attribute 27, 1
   5              		.eabi_attribute 28, 1
   6              		.eabi_attribute 20, 1
   7              		.eabi_attribute 21, 1
   8              		.eabi_attribute 23, 3
   9              		.eabi_attribute 24, 1
  10              		.eabi_attribute 25, 1
  11              		.eabi_attribute 26, 1
  12              		.eabi_attribute 30, 1
  13              		.eabi_attribute 34, 1
  14              		.eabi_attribute 18, 4
  15              		.file	"tim.c"
  16              		.text
  17              	.Ltext0:
  18              		.cfi_sections	.debug_frame
  19              		.section	.text.MX_TIM2_Init,"ax",%progbits
  20              		.align	1
  21              		.global	MX_TIM2_Init
  22              		.syntax unified
  23              		.thumb
  24              		.thumb_func
  26              	MX_TIM2_Init:
  27              	.LFB130:
  28              		.file 1 "Core/Src/tim.c"
   1:Core/Src/tim.c **** /* USER CODE BEGIN Header */
   2:Core/Src/tim.c **** /**
   3:Core/Src/tim.c ****   ******************************************************************************
   4:Core/Src/tim.c ****   * @file    tim.c
   5:Core/Src/tim.c ****   * @brief   This file provides code for the configuration
   6:Core/Src/tim.c ****   *          of the TIM instances.
   7:Core/Src/tim.c ****   ******************************************************************************
   8:Core/Src/tim.c ****   * @attention
   9:Core/Src/tim.c ****   *
  10:Core/Src/tim.c ****   * Copyright (c) 2022 STMicroelectronics.
  11:Core/Src/tim.c ****   * All rights reserved.
  12:Core/Src/tim.c ****   *
  13:Core/Src/tim.c ****   * This software is licensed under terms that can be found in the LICENSE file
  14:Core/Src/tim.c ****   * in the root directory of this software component.
  15:Core/Src/tim.c ****   * If no LICENSE file comes with this software, it is provided AS-IS.
  16:Core/Src/tim.c ****   *
  17:Core/Src/tim.c ****   ******************************************************************************
  18:Core/Src/tim.c ****   */
  19:Core/Src/tim.c **** /* USER CODE END Header */
  20:Core/Src/tim.c **** /* Includes ------------------------------------------------------------------*/
  21:Core/Src/tim.c **** #include "tim.h"
  22:Core/Src/tim.c **** 
  23:Core/Src/tim.c **** /* USER CODE BEGIN 0 */
  24:Core/Src/tim.c **** 
  25:Core/Src/tim.c **** /* USER CODE END 0 */
  26:Core/Src/tim.c **** 
  27:Core/Src/tim.c **** TIM_HandleTypeDef htim2;
  28:Core/Src/tim.c **** 
  29:Core/Src/tim.c **** /* TIM2 init function */
  30:Core/Src/tim.c **** void MX_TIM2_Init(void)
ARM GAS  C:\Users\danie\AppData\Local\Temp\cciCyzhz.s 			page 2


  31:Core/Src/tim.c **** {
  29              		.loc 1 31 1 view -0
  30              		.cfi_startproc
  31              		@ args = 0, pretend = 0, frame = 24
  32              		@ frame_needed = 0, uses_anonymous_args = 0
  33 0000 00B5     		push	{lr}
  34              		.cfi_def_cfa_offset 4
  35              		.cfi_offset 14, -4
  36 0002 87B0     		sub	sp, sp, #28
  37              		.cfi_def_cfa_offset 32
  32:Core/Src/tim.c **** 
  33:Core/Src/tim.c ****   /* USER CODE BEGIN TIM2_Init 0 */
  34:Core/Src/tim.c **** 
  35:Core/Src/tim.c ****   /* USER CODE END TIM2_Init 0 */
  36:Core/Src/tim.c **** 
  37:Core/Src/tim.c ****   TIM_MasterConfigTypeDef sMasterConfig = {0};
  38              		.loc 1 37 3 view .LVU1
  39              		.loc 1 37 27 is_stmt 0 view .LVU2
  40 0004 0023     		movs	r3, #0
  41 0006 0493     		str	r3, [sp, #16]
  42 0008 0593     		str	r3, [sp, #20]
  38:Core/Src/tim.c ****   TIM_IC_InitTypeDef sConfigIC = {0};
  43              		.loc 1 38 3 is_stmt 1 view .LVU3
  44              		.loc 1 38 22 is_stmt 0 view .LVU4
  45 000a 0093     		str	r3, [sp]
  46 000c 0193     		str	r3, [sp, #4]
  47 000e 0293     		str	r3, [sp, #8]
  48 0010 0393     		str	r3, [sp, #12]
  39:Core/Src/tim.c **** 
  40:Core/Src/tim.c ****   /* USER CODE BEGIN TIM2_Init 1 */
  41:Core/Src/tim.c **** 
  42:Core/Src/tim.c ****   /* USER CODE END TIM2_Init 1 */
  43:Core/Src/tim.c ****   htim2.Instance = TIM2;
  49              		.loc 1 43 3 is_stmt 1 view .LVU5
  50              		.loc 1 43 18 is_stmt 0 view .LVU6
  51 0012 1E48     		ldr	r0, .L11
  52 0014 4FF08042 		mov	r2, #1073741824
  53 0018 0260     		str	r2, [r0]
  44:Core/Src/tim.c ****   htim2.Init.Prescaler = 8399;
  54              		.loc 1 44 3 is_stmt 1 view .LVU7
  55              		.loc 1 44 24 is_stmt 0 view .LVU8
  56 001a 42F2CF02 		movw	r2, #8399
  57 001e 4260     		str	r2, [r0, #4]
  45:Core/Src/tim.c ****   htim2.Init.CounterMode = TIM_COUNTERMODE_UP;
  58              		.loc 1 45 3 is_stmt 1 view .LVU9
  59              		.loc 1 45 26 is_stmt 0 view .LVU10
  60 0020 8360     		str	r3, [r0, #8]
  46:Core/Src/tim.c ****   htim2.Init.Period = 9999;
  61              		.loc 1 46 3 is_stmt 1 view .LVU11
  62              		.loc 1 46 21 is_stmt 0 view .LVU12
  63 0022 42F20F72 		movw	r2, #9999
  64 0026 C260     		str	r2, [r0, #12]
  47:Core/Src/tim.c ****   htim2.Init.ClockDivision = TIM_CLOCKDIVISION_DIV1;
  65              		.loc 1 47 3 is_stmt 1 view .LVU13
  66              		.loc 1 47 28 is_stmt 0 view .LVU14
  67 0028 0361     		str	r3, [r0, #16]
  48:Core/Src/tim.c ****   htim2.Init.AutoReloadPreload = TIM_AUTORELOAD_PRELOAD_DISABLE;
ARM GAS  C:\Users\danie\AppData\Local\Temp\cciCyzhz.s 			page 3


  68              		.loc 1 48 3 is_stmt 1 view .LVU15
  69              		.loc 1 48 32 is_stmt 0 view .LVU16
  70 002a 8361     		str	r3, [r0, #24]
  49:Core/Src/tim.c ****   if (HAL_TIM_IC_Init(&htim2) != HAL_OK)
  71              		.loc 1 49 3 is_stmt 1 view .LVU17
  72              		.loc 1 49 7 is_stmt 0 view .LVU18
  73 002c FFF7FEFF 		bl	HAL_TIM_IC_Init
  74              	.LVL0:
  75              		.loc 1 49 6 view .LVU19
  76 0030 00BB     		cbnz	r0, .L7
  77              	.L2:
  50:Core/Src/tim.c ****   {
  51:Core/Src/tim.c ****     Error_Handler();
  52:Core/Src/tim.c ****   }
  53:Core/Src/tim.c ****   sMasterConfig.MasterOutputTrigger = TIM_TRGO_RESET;
  78              		.loc 1 53 3 is_stmt 1 view .LVU20
  79              		.loc 1 53 37 is_stmt 0 view .LVU21
  80 0032 0023     		movs	r3, #0
  81 0034 0493     		str	r3, [sp, #16]
  54:Core/Src/tim.c ****   sMasterConfig.MasterSlaveMode = TIM_MASTERSLAVEMODE_DISABLE;
  82              		.loc 1 54 3 is_stmt 1 view .LVU22
  83              		.loc 1 54 33 is_stmt 0 view .LVU23
  84 0036 0593     		str	r3, [sp, #20]
  55:Core/Src/tim.c ****   if (HAL_TIMEx_MasterConfigSynchronization(&htim2, &sMasterConfig) != HAL_OK)
  85              		.loc 1 55 3 is_stmt 1 view .LVU24
  86              		.loc 1 55 7 is_stmt 0 view .LVU25
  87 0038 04A9     		add	r1, sp, #16
  88 003a 1448     		ldr	r0, .L11
  89 003c FFF7FEFF 		bl	HAL_TIMEx_MasterConfigSynchronization
  90              	.LVL1:
  91              		.loc 1 55 6 view .LVU26
  92 0040 D8B9     		cbnz	r0, .L8
  93              	.L3:
  56:Core/Src/tim.c ****   {
  57:Core/Src/tim.c ****     Error_Handler();
  58:Core/Src/tim.c ****   }
  59:Core/Src/tim.c ****   sConfigIC.ICPolarity = TIM_INPUTCHANNELPOLARITY_FALLING;
  94              		.loc 1 59 3 is_stmt 1 view .LVU27
  95              		.loc 1 59 24 is_stmt 0 view .LVU28
  96 0042 0223     		movs	r3, #2
  97 0044 0093     		str	r3, [sp]
  60:Core/Src/tim.c ****   sConfigIC.ICSelection = TIM_ICSELECTION_DIRECTTI;
  98              		.loc 1 60 3 is_stmt 1 view .LVU29
  99              		.loc 1 60 25 is_stmt 0 view .LVU30
 100 0046 0123     		movs	r3, #1
 101 0048 0193     		str	r3, [sp, #4]
  61:Core/Src/tim.c ****   sConfigIC.ICPrescaler = TIM_ICPSC_DIV1;
 102              		.loc 1 61 3 is_stmt 1 view .LVU31
 103              		.loc 1 61 25 is_stmt 0 view .LVU32
 104 004a 0022     		movs	r2, #0
 105 004c 0292     		str	r2, [sp, #8]
  62:Core/Src/tim.c ****   sConfigIC.ICFilter = 0;
 106              		.loc 1 62 3 is_stmt 1 view .LVU33
 107              		.loc 1 62 22 is_stmt 0 view .LVU34
 108 004e 0392     		str	r2, [sp, #12]
  63:Core/Src/tim.c ****   if (HAL_TIM_IC_ConfigChannel(&htim2, &sConfigIC, TIM_CHANNEL_1) != HAL_OK)
 109              		.loc 1 63 3 is_stmt 1 view .LVU35
ARM GAS  C:\Users\danie\AppData\Local\Temp\cciCyzhz.s 			page 4


 110              		.loc 1 63 7 is_stmt 0 view .LVU36
 111 0050 6946     		mov	r1, sp
 112 0052 0E48     		ldr	r0, .L11
 113 0054 FFF7FEFF 		bl	HAL_TIM_IC_ConfigChannel
 114              	.LVL2:
 115              		.loc 1 63 6 view .LVU37
 116 0058 90B9     		cbnz	r0, .L9
 117              	.L4:
  64:Core/Src/tim.c ****   {
  65:Core/Src/tim.c ****     Error_Handler();
  66:Core/Src/tim.c ****   }
  67:Core/Src/tim.c ****   sConfigIC.ICPolarity = TIM_INPUTCHANNELPOLARITY_RISING;
 118              		.loc 1 67 3 is_stmt 1 view .LVU38
 119              		.loc 1 67 24 is_stmt 0 view .LVU39
 120 005a 0023     		movs	r3, #0
 121 005c 0093     		str	r3, [sp]
  68:Core/Src/tim.c ****   sConfigIC.ICSelection = TIM_ICSELECTION_INDIRECTTI;
 122              		.loc 1 68 3 is_stmt 1 view .LVU40
 123              		.loc 1 68 25 is_stmt 0 view .LVU41
 124 005e 0223     		movs	r3, #2
 125 0060 0193     		str	r3, [sp, #4]
  69:Core/Src/tim.c ****   if (HAL_TIM_IC_ConfigChannel(&htim2, &sConfigIC, TIM_CHANNEL_2) != HAL_OK)
 126              		.loc 1 69 3 is_stmt 1 view .LVU42
 127              		.loc 1 69 7 is_stmt 0 view .LVU43
 128 0062 0422     		movs	r2, #4
 129 0064 6946     		mov	r1, sp
 130 0066 0948     		ldr	r0, .L11
 131 0068 FFF7FEFF 		bl	HAL_TIM_IC_ConfigChannel
 132              	.LVL3:
 133              		.loc 1 69 6 view .LVU44
 134 006c 58B9     		cbnz	r0, .L10
 135              	.L1:
  70:Core/Src/tim.c ****   {
  71:Core/Src/tim.c ****     Error_Handler();
  72:Core/Src/tim.c ****   }
  73:Core/Src/tim.c ****   /* USER CODE BEGIN TIM2_Init 2 */
  74:Core/Src/tim.c **** 
  75:Core/Src/tim.c ****   /* USER CODE END TIM2_Init 2 */
  76:Core/Src/tim.c **** 
  77:Core/Src/tim.c **** }
 136              		.loc 1 77 1 view .LVU45
 137 006e 07B0     		add	sp, sp, #28
 138              		.cfi_remember_state
 139              		.cfi_def_cfa_offset 4
 140              		@ sp needed
 141 0070 5DF804FB 		ldr	pc, [sp], #4
 142              	.L7:
 143              		.cfi_restore_state
  51:Core/Src/tim.c ****   }
 144              		.loc 1 51 5 is_stmt 1 view .LVU46
 145 0074 FFF7FEFF 		bl	Error_Handler
 146              	.LVL4:
 147 0078 DBE7     		b	.L2
 148              	.L8:
  57:Core/Src/tim.c ****   }
 149              		.loc 1 57 5 view .LVU47
 150 007a FFF7FEFF 		bl	Error_Handler
ARM GAS  C:\Users\danie\AppData\Local\Temp\cciCyzhz.s 			page 5


 151              	.LVL5:
 152 007e E0E7     		b	.L3
 153              	.L9:
  65:Core/Src/tim.c ****   }
 154              		.loc 1 65 5 view .LVU48
 155 0080 FFF7FEFF 		bl	Error_Handler
 156              	.LVL6:
 157 0084 E9E7     		b	.L4
 158              	.L10:
  71:Core/Src/tim.c ****   }
 159              		.loc 1 71 5 view .LVU49
 160 0086 FFF7FEFF 		bl	Error_Handler
 161              	.LVL7:
 162              		.loc 1 77 1 is_stmt 0 view .LVU50
 163 008a F0E7     		b	.L1
 164              	.L12:
 165              		.align	2
 166              	.L11:
 167 008c 00000000 		.word	.LANCHOR0
 168              		.cfi_endproc
 169              	.LFE130:
 171              		.section	.text.HAL_TIM_IC_MspInit,"ax",%progbits
 172              		.align	1
 173              		.global	HAL_TIM_IC_MspInit
 174              		.syntax unified
 175              		.thumb
 176              		.thumb_func
 178              	HAL_TIM_IC_MspInit:
 179              	.LVL8:
 180              	.LFB131:
  78:Core/Src/tim.c **** 
  79:Core/Src/tim.c **** void HAL_TIM_IC_MspInit(TIM_HandleTypeDef* tim_icHandle)
  80:Core/Src/tim.c **** {
 181              		.loc 1 80 1 is_stmt 1 view -0
 182              		.cfi_startproc
 183              		@ args = 0, pretend = 0, frame = 32
 184              		@ frame_needed = 0, uses_anonymous_args = 0
 185              		.loc 1 80 1 is_stmt 0 view .LVU52
 186 0000 00B5     		push	{lr}
 187              		.cfi_def_cfa_offset 4
 188              		.cfi_offset 14, -4
 189 0002 89B0     		sub	sp, sp, #36
 190              		.cfi_def_cfa_offset 40
  81:Core/Src/tim.c **** 
  82:Core/Src/tim.c ****   GPIO_InitTypeDef GPIO_InitStruct = {0};
 191              		.loc 1 82 3 is_stmt 1 view .LVU53
 192              		.loc 1 82 20 is_stmt 0 view .LVU54
 193 0004 0023     		movs	r3, #0
 194 0006 0393     		str	r3, [sp, #12]
 195 0008 0493     		str	r3, [sp, #16]
 196 000a 0593     		str	r3, [sp, #20]
 197 000c 0693     		str	r3, [sp, #24]
 198 000e 0793     		str	r3, [sp, #28]
  83:Core/Src/tim.c ****   if(tim_icHandle->Instance==TIM2)
 199              		.loc 1 83 3 is_stmt 1 view .LVU55
 200              		.loc 1 83 18 is_stmt 0 view .LVU56
 201 0010 0368     		ldr	r3, [r0]
ARM GAS  C:\Users\danie\AppData\Local\Temp\cciCyzhz.s 			page 6


 202              		.loc 1 83 5 view .LVU57
 203 0012 B3F1804F 		cmp	r3, #1073741824
 204 0016 02D0     		beq	.L16
 205              	.LVL9:
 206              	.L13:
  84:Core/Src/tim.c ****   {
  85:Core/Src/tim.c ****   /* USER CODE BEGIN TIM2_MspInit 0 */
  86:Core/Src/tim.c **** 
  87:Core/Src/tim.c ****   /* USER CODE END TIM2_MspInit 0 */
  88:Core/Src/tim.c ****     /* TIM2 clock enable */
  89:Core/Src/tim.c ****     __HAL_RCC_TIM2_CLK_ENABLE();
  90:Core/Src/tim.c **** 
  91:Core/Src/tim.c ****     __HAL_RCC_GPIOA_CLK_ENABLE();
  92:Core/Src/tim.c ****     /**TIM2 GPIO Configuration
  93:Core/Src/tim.c ****     PA0-WKUP     ------> TIM2_CH1
  94:Core/Src/tim.c ****     */
  95:Core/Src/tim.c ****     GPIO_InitStruct.Pin = GPIO_PIN_0;
  96:Core/Src/tim.c ****     GPIO_InitStruct.Mode = GPIO_MODE_AF_PP;
  97:Core/Src/tim.c ****     GPIO_InitStruct.Pull = GPIO_PULLUP;
  98:Core/Src/tim.c ****     GPIO_InitStruct.Speed = GPIO_SPEED_FREQ_LOW;
  99:Core/Src/tim.c ****     GPIO_InitStruct.Alternate = GPIO_AF1_TIM2;
 100:Core/Src/tim.c ****     HAL_GPIO_Init(GPIOA, &GPIO_InitStruct);
 101:Core/Src/tim.c **** 
 102:Core/Src/tim.c ****   /* USER CODE BEGIN TIM2_MspInit 1 */
 103:Core/Src/tim.c **** 
 104:Core/Src/tim.c ****   /* USER CODE END TIM2_MspInit 1 */
 105:Core/Src/tim.c ****   }
 106:Core/Src/tim.c **** }
 207              		.loc 1 106 1 view .LVU58
 208 0018 09B0     		add	sp, sp, #36
 209              		.cfi_remember_state
 210              		.cfi_def_cfa_offset 4
 211              		@ sp needed
 212 001a 5DF804FB 		ldr	pc, [sp], #4
 213              	.LVL10:
 214              	.L16:
 215              		.cfi_restore_state
  89:Core/Src/tim.c **** 
 216              		.loc 1 89 5 is_stmt 1 view .LVU59
 217              	.LBB2:
  89:Core/Src/tim.c **** 
 218              		.loc 1 89 5 view .LVU60
 219 001e 0021     		movs	r1, #0
 220 0020 0191     		str	r1, [sp, #4]
  89:Core/Src/tim.c **** 
 221              		.loc 1 89 5 view .LVU61
 222 0022 03F50E33 		add	r3, r3, #145408
 223 0026 1A6C     		ldr	r2, [r3, #64]
 224 0028 42F00102 		orr	r2, r2, #1
 225 002c 1A64     		str	r2, [r3, #64]
  89:Core/Src/tim.c **** 
 226              		.loc 1 89 5 view .LVU62
 227 002e 1A6C     		ldr	r2, [r3, #64]
 228 0030 02F00102 		and	r2, r2, #1
 229 0034 0192     		str	r2, [sp, #4]
  89:Core/Src/tim.c **** 
 230              		.loc 1 89 5 view .LVU63
ARM GAS  C:\Users\danie\AppData\Local\Temp\cciCyzhz.s 			page 7


 231 0036 019A     		ldr	r2, [sp, #4]
 232              	.LBE2:
  89:Core/Src/tim.c **** 
 233              		.loc 1 89 5 view .LVU64
  91:Core/Src/tim.c ****     /**TIM2 GPIO Configuration
 234              		.loc 1 91 5 view .LVU65
 235              	.LBB3:
  91:Core/Src/tim.c ****     /**TIM2 GPIO Configuration
 236              		.loc 1 91 5 view .LVU66
 237 0038 0291     		str	r1, [sp, #8]
  91:Core/Src/tim.c ****     /**TIM2 GPIO Configuration
 238              		.loc 1 91 5 view .LVU67
 239 003a 1A6B     		ldr	r2, [r3, #48]
 240 003c 42F00102 		orr	r2, r2, #1
 241 0040 1A63     		str	r2, [r3, #48]
  91:Core/Src/tim.c ****     /**TIM2 GPIO Configuration
 242              		.loc 1 91 5 view .LVU68
 243 0042 1B6B     		ldr	r3, [r3, #48]
 244 0044 03F00103 		and	r3, r3, #1
 245 0048 0293     		str	r3, [sp, #8]
  91:Core/Src/tim.c ****     /**TIM2 GPIO Configuration
 246              		.loc 1 91 5 view .LVU69
 247 004a 029B     		ldr	r3, [sp, #8]
 248              	.LBE3:
  91:Core/Src/tim.c ****     /**TIM2 GPIO Configuration
 249              		.loc 1 91 5 view .LVU70
  95:Core/Src/tim.c ****     GPIO_InitStruct.Mode = GPIO_MODE_AF_PP;
 250              		.loc 1 95 5 view .LVU71
  95:Core/Src/tim.c ****     GPIO_InitStruct.Mode = GPIO_MODE_AF_PP;
 251              		.loc 1 95 25 is_stmt 0 view .LVU72
 252 004c 0123     		movs	r3, #1
 253 004e 0393     		str	r3, [sp, #12]
  96:Core/Src/tim.c ****     GPIO_InitStruct.Pull = GPIO_PULLUP;
 254              		.loc 1 96 5 is_stmt 1 view .LVU73
  96:Core/Src/tim.c ****     GPIO_InitStruct.Pull = GPIO_PULLUP;
 255              		.loc 1 96 26 is_stmt 0 view .LVU74
 256 0050 0222     		movs	r2, #2
 257 0052 0492     		str	r2, [sp, #16]
  97:Core/Src/tim.c ****     GPIO_InitStruct.Speed = GPIO_SPEED_FREQ_LOW;
 258              		.loc 1 97 5 is_stmt 1 view .LVU75
  97:Core/Src/tim.c ****     GPIO_InitStruct.Speed = GPIO_SPEED_FREQ_LOW;
 259              		.loc 1 97 26 is_stmt 0 view .LVU76
 260 0054 0593     		str	r3, [sp, #20]
  98:Core/Src/tim.c ****     GPIO_InitStruct.Alternate = GPIO_AF1_TIM2;
 261              		.loc 1 98 5 is_stmt 1 view .LVU77
  99:Core/Src/tim.c ****     HAL_GPIO_Init(GPIOA, &GPIO_InitStruct);
 262              		.loc 1 99 5 view .LVU78
  99:Core/Src/tim.c ****     HAL_GPIO_Init(GPIOA, &GPIO_InitStruct);
 263              		.loc 1 99 31 is_stmt 0 view .LVU79
 264 0056 0793     		str	r3, [sp, #28]
 100:Core/Src/tim.c **** 
 265              		.loc 1 100 5 is_stmt 1 view .LVU80
 266 0058 03A9     		add	r1, sp, #12
 267 005a 0248     		ldr	r0, .L17
 268              	.LVL11:
 100:Core/Src/tim.c **** 
 269              		.loc 1 100 5 is_stmt 0 view .LVU81
ARM GAS  C:\Users\danie\AppData\Local\Temp\cciCyzhz.s 			page 8


 270 005c FFF7FEFF 		bl	HAL_GPIO_Init
 271              	.LVL12:
 272              		.loc 1 106 1 view .LVU82
 273 0060 DAE7     		b	.L13
 274              	.L18:
 275 0062 00BF     		.align	2
 276              	.L17:
 277 0064 00000240 		.word	1073872896
 278              		.cfi_endproc
 279              	.LFE131:
 281              		.section	.text.HAL_TIM_IC_MspDeInit,"ax",%progbits
 282              		.align	1
 283              		.global	HAL_TIM_IC_MspDeInit
 284              		.syntax unified
 285              		.thumb
 286              		.thumb_func
 288              	HAL_TIM_IC_MspDeInit:
 289              	.LVL13:
 290              	.LFB132:
 107:Core/Src/tim.c **** 
 108:Core/Src/tim.c **** void HAL_TIM_IC_MspDeInit(TIM_HandleTypeDef* tim_icHandle)
 109:Core/Src/tim.c **** {
 291              		.loc 1 109 1 is_stmt 1 view -0
 292              		.cfi_startproc
 293              		@ args = 0, pretend = 0, frame = 0
 294              		@ frame_needed = 0, uses_anonymous_args = 0
 295              		.loc 1 109 1 is_stmt 0 view .LVU84
 296 0000 08B5     		push	{r3, lr}
 297              		.cfi_def_cfa_offset 8
 298              		.cfi_offset 3, -8
 299              		.cfi_offset 14, -4
 110:Core/Src/tim.c **** 
 111:Core/Src/tim.c ****   if(tim_icHandle->Instance==TIM2)
 300              		.loc 1 111 3 is_stmt 1 view .LVU85
 301              		.loc 1 111 18 is_stmt 0 view .LVU86
 302 0002 0368     		ldr	r3, [r0]
 303              		.loc 1 111 5 view .LVU87
 304 0004 B3F1804F 		cmp	r3, #1073741824
 305 0008 00D0     		beq	.L22
 306              	.LVL14:
 307              	.L19:
 112:Core/Src/tim.c ****   {
 113:Core/Src/tim.c ****   /* USER CODE BEGIN TIM2_MspDeInit 0 */
 114:Core/Src/tim.c **** 
 115:Core/Src/tim.c ****   /* USER CODE END TIM2_MspDeInit 0 */
 116:Core/Src/tim.c ****     /* Peripheral clock disable */
 117:Core/Src/tim.c ****     __HAL_RCC_TIM2_CLK_DISABLE();
 118:Core/Src/tim.c **** 
 119:Core/Src/tim.c ****     /**TIM2 GPIO Configuration
 120:Core/Src/tim.c ****     PA0-WKUP     ------> TIM2_CH1
 121:Core/Src/tim.c ****     */
 122:Core/Src/tim.c ****     HAL_GPIO_DeInit(GPIOA, GPIO_PIN_0);
 123:Core/Src/tim.c **** 
 124:Core/Src/tim.c ****     /* TIM2 interrupt Deinit */
 125:Core/Src/tim.c ****     HAL_NVIC_DisableIRQ(TIM2_IRQn);
 126:Core/Src/tim.c ****   /* USER CODE BEGIN TIM2_MspDeInit 1 */
 127:Core/Src/tim.c **** 
ARM GAS  C:\Users\danie\AppData\Local\Temp\cciCyzhz.s 			page 9


 128:Core/Src/tim.c ****   /* USER CODE END TIM2_MspDeInit 1 */
 129:Core/Src/tim.c ****   }
 130:Core/Src/tim.c **** }
 308              		.loc 1 130 1 view .LVU88
 309 000a 08BD     		pop	{r3, pc}
 310              	.LVL15:
 311              	.L22:
 117:Core/Src/tim.c **** 
 312              		.loc 1 117 5 is_stmt 1 view .LVU89
 313 000c 064A     		ldr	r2, .L23
 314 000e 136C     		ldr	r3, [r2, #64]
 315 0010 23F00103 		bic	r3, r3, #1
 316 0014 1364     		str	r3, [r2, #64]
 122:Core/Src/tim.c **** 
 317              		.loc 1 122 5 view .LVU90
 318 0016 0121     		movs	r1, #1
 319 0018 0448     		ldr	r0, .L23+4
 320              	.LVL16:
 122:Core/Src/tim.c **** 
 321              		.loc 1 122 5 is_stmt 0 view .LVU91
 322 001a FFF7FEFF 		bl	HAL_GPIO_DeInit
 323              	.LVL17:
 125:Core/Src/tim.c ****   /* USER CODE BEGIN TIM2_MspDeInit 1 */
 324              		.loc 1 125 5 is_stmt 1 view .LVU92
 325 001e 1C20     		movs	r0, #28
 326 0020 FFF7FEFF 		bl	HAL_NVIC_DisableIRQ
 327              	.LVL18:
 328              		.loc 1 130 1 is_stmt 0 view .LVU93
 329 0024 F1E7     		b	.L19
 330              	.L24:
 331 0026 00BF     		.align	2
 332              	.L23:
 333 0028 00380240 		.word	1073887232
 334 002c 00000240 		.word	1073872896
 335              		.cfi_endproc
 336              	.LFE132:
 338              		.global	htim2
 339              		.section	.bss.htim2,"aw",%nobits
 340              		.align	2
 341              		.set	.LANCHOR0,. + 0
 344              	htim2:
 345 0000 00000000 		.space	72
 345      00000000 
 345      00000000 
 345      00000000 
 345      00000000 
 346              		.text
 347              	.Letext0:
 348              		.file 2 "Drivers/CMSIS/Device/ST/STM32F4xx/Include/stm32f411xe.h"
 349              		.file 3 "c:\\users\\danie\\appdata\\roaming\\code\\user\\globalstorage\\bmd.stm32-for-vscode\\@xpa
 350              		.file 4 "c:\\users\\danie\\appdata\\roaming\\code\\user\\globalstorage\\bmd.stm32-for-vscode\\@xpa
 351              		.file 5 "Drivers/STM32F4xx_HAL_Driver/Inc/stm32f4xx_hal_def.h"
 352              		.file 6 "Drivers/STM32F4xx_HAL_Driver/Inc/stm32f4xx_hal_gpio.h"
 353              		.file 7 "Drivers/STM32F4xx_HAL_Driver/Inc/stm32f4xx_hal_dma.h"
 354              		.file 8 "Drivers/STM32F4xx_HAL_Driver/Inc/stm32f4xx_hal_tim.h"
 355              		.file 9 "Drivers/STM32F4xx_HAL_Driver/Inc/stm32f4xx_hal_cortex.h"
 356              		.file 10 "Drivers/STM32F4xx_HAL_Driver/Inc/stm32f4xx_hal_tim_ex.h"
ARM GAS  C:\Users\danie\AppData\Local\Temp\cciCyzhz.s 			page 10


 357              		.file 11 "Core/Inc/tim.h"
 358              		.file 12 "Core/Inc/main.h"
ARM GAS  C:\Users\danie\AppData\Local\Temp\cciCyzhz.s 			page 11

